; Function Attrs: mustprogress nofree norecurse nosync nounwind willreturn memory(argmem: readwrite) uwtable
define { i64, i64 } @_ZN3re28Compiler8PreVisitEPNS_6RegexpENS_4FragEPb(ptr nocapture noundef nonnull readonly align 8 dereferenceable(212) %this, ptr nocapture readnone %re, i64 %.coerce0, i64 %.coerce1, ptr nocapture noundef writeonly %stop) unnamed_addr #15 align 2 {
entry:
  %retval = alloca %"struct.re2::Frag", align 8
  %failed_ = getelementptr inbounds i8, ptr %this, i64 104
  %0 = load i8, ptr %failed_, align 8
  %1 = and i8 %0, 1
  %tobool.not = icmp eq i8 %1, 0
  br i1 %tobool.not, label %if.end, label %if.then

if.then:                                          ; preds = %entry
  store i8 1, ptr %stop, align 1
  br label %if.end

if.end:                                           ; preds = %if.then, %entry
  store i32 0, ptr %retval, align 8
  %retval.4.retval.4.retval.4.end.i.sroa_idx = getelementptr inbounds i8, ptr %retval, i64 4
  store i64 0, ptr %retval.4.retval.4.retval.4.end.i.sroa_idx, align 4
  %retval.12.retval.12.retval.12.nullable.i.sroa_idx = getelementptr inbounds i8, ptr %retval, i64 12
  store i8 0, ptr %retval.12.retval.12.retval.12.nullable.i.sroa_idx, align 4
  %retval.0.retval.0.retval.0..fca.0.load = load i64, ptr %retval, align 8
  %.fca.0.insert = insertvalue { i64, i64 } poison, i64 %retval.0.retval.0.retval.0..fca.0.load, 0
  %retval.8.retval.8.retval.8..fca.1.gep.sroa_idx = getelementptr inbounds i8, ptr %retval, i64 8
  %retval.8.retval.8.retval.8..fca.1.load = load i64, ptr %retval.8.retval.8.retval.8..fca.1.gep.sroa_idx, align 8
  %.fca.1.insert = insertvalue { i64, i64 } %.fca.0.insert, i64 %retval.8.retval.8.retval.8..fca.1.load, 1
  ret { i64, i64 } %.fca.1.insert
}